Certificate:
    Data:
        Version: 3 (0x2)
        Serial Number:
            67:78:8a:e4:4a:9d:48:b2:1e:9d:0e:c0:90:e3:2f:48:d6:7d:ff:df
        Signature Algorithm: sha256WithRSAEncryption
        Issuer: CN = localhost
        Validity
            Not Before: May 24 21:30:55 2020 GMT
            Not After : Jun 23 21:30:55 2020 GMT
        Subject: CN = localhost
        Subject Public Key Info:
            Public Key Algorithm: rsaEncryption
                RSA Public-Key: (2048 bit)
                Modulus:
                    00:a9:bf:80:26:a0:55:97:dd:a5:e9:ad:80:a0:ae:
                    b7:92:1a:18:b3:2a:9d:b6:46:b6:c0:b4:c5:95:9d:
                    8b:38:28:5b:3a:f3:42:29:ba:7b:8c:f2:7b:3b:d0:
                    43:4f:43:dc:36:0e:47:a6:db:fc:54:88:85:d7:3d:
                    9f:48:c5:cc:06:48:bc:71:a3:0c:06:d3:7a:4f:d1:
                    c4:c2:59:05:31:87:51:94:e6:04:0d:72:6a:22:63:
                    0f:05:14:19:ca:02:8a:62:29:13:b6:03:67:3d:ab:
                    3e:db:83:d6:24:74:d9:9b:68:93:65:cf:1b:78:c9:
                    a9:8c:23:ce:39:34:ea:d3:8e:78:7d:4f:16:e0:27:
                    9c:95:14:ca:98:4f:b1:4d:c7:28:64:98:17:a1:57:
                    c8:35:8c:d0:65:24:57:6e:4f:02:09:3f:24:49:c4:
                    e9:22:9d:2b:c8:0a:97:8b:82:2e:fa:2b:85:aa:c5:
                    56:15:b8:d5:41:35:51:b0:04:6d:52:b2:c4:6b:d0:
                    94:ed:45:8d:62:a5:b9:a0:ed:88:46:77:c5:68:81:
                    e2:30:89:84:65:9d:ef:ec:1f:b1:99:c6:29:4b:1e:
                    c8:f1:f0:59:82:26:3e:27:8f:ef:d8:20:ce:78:fd:
                    bb:12:b4:56:c4:71:28:16:55:9d:0c:5d:32:c7:fe:
                    b8:91
                Exponent: 65537 (0x10001)
        X509v3 extensions:
            X509v3 Subject Key Identifier: 
                4A:7E:11:7E:C9:0D:D4:1B:6B:6C:38:CB:0F:78:35:A4:C7:B5:26:D9
            X509v3 Authority Key Identifier: 
                keyid:4A:7E:11:7E:C9:0D:D4:1B:6B:6C:38:CB:0F:78:35:A4:C7:B5:26:D9

            X509v3 Basic Constraints: critical
                CA:TRUE
    Signature Algorithm: sha256WithRSAEncryption
         36:6b:34:fe:4d:71:a1:ce:ae:68:71:34:c7:16:1a:3b:32:81:
         72:ed:ad:2b:f2:5d:79:b6:26:f3:2f:c7:55:b4:48:5b:8b:74:
         96:80:2b:f5:48:90:12:da:95:1d:1e:57:e0:37:da:ea:8d:00:
         4c:4f:7b:67:88:85:6b:ef:d7:55:6a:5b:1f:82:6e:2b:d8:34:
         9f:07:13:f3:7e:10:e2:8e:bb:4b:93:c4:50:57:b2:e9:a2:b0:
         27:28:92:b7:06:7d:30:42:3d:8b:74:33:65:bc:ee:a4:94:6e:
         1f:d7:be:86:73:12:bd:d1:58:0f:8d:a5:1d:fe:1d:00:9c:6f:
         4c:ca:39:9a:8f:71:bb:5b:85:ad:bb:27:fc:82:2a:82:3d:e4:
         23:ad:6a:3d:fd:be:6a:57:21:74:a1:74:19:25:9c:64:29:21:
         af:ca:8b:b1:93:46:5e:4c:cd:3f:07:4f:4b:16:e3:e8:29:d1:
         93:24:2e:ff:9d:3c:7b:23:f2:14:dc:56:34:66:09:e1:80:4f:
         87:e8:cd:97:e2:d2:be:34:f5:7d:52:11:ed:a9:ec:06:1b:34:
         85:21:34:00:9e:7b:6c:ce:c8:e1:0d:b8:8f:a9:77:30:93:5e:
         2e:58:ab:69:99:b6:fc:21:11:81:c7:8d:05:ff:52:c1:5e:78:
         03:62:9c:56
-----BEGIN CERTIFICATE-----
MIIDCTCCAfGgAwIBAgIUZ3iK5EqdSLIenQ7AkOMvSNZ9/98wDQYJKoZIhvcNAQEL
BQAwFDESMBAGA1UEAwwJbG9jYWxob3N0MB4XDTIwMDUyNDIxMzA1NVoXDTIwMDYy
MzIxMzA1NVowFDESMBAGA1UEAwwJbG9jYWxob3N0MIIBIjANBgkqhkiG9w0BAQEF
AAOCAQ8AMIIBCgKCAQEAqb+AJqBVl92l6a2AoK63khoYsyqdtka2wLTFlZ2LOChb
OvNCKbp7jPJ7O9BDT0PcNg5Hptv8VIiF1z2fSMXMBki8caMMBtN6T9HEwlkFMYdR
lOYEDXJqImMPBRQZygKKYikTtgNnPas+24PWJHTZm2iTZc8beMmpjCPOOTTq0454
fU8W4CeclRTKmE+xTccoZJgXoVfINYzQZSRXbk8CCT8kScTpIp0ryAqXi4Iu+iuF
qsVWFbjVQTVRsARtUrLEa9CU7UWNYqW5oO2IRnfFaIHiMImEZZ3v7B+xmcYpSx7I
8fBZgiY+J4/v2CDOeP27ErRWxHEoFlWdDF0yx/64kQIDAQABo1MwUTAdBgNVHQ4E
FgQUSn4RfskN1BtrbDjLD3g1pMe1JtkwHwYDVR0jBBgwFoAUSn4RfskN1BtrbDjL
D3g1pMe1JtkwDwYDVR0TAQH/BAUwAwEB/zANBgkqhkiG9w0BAQsFAAOCAQEANms0
/k1xoc6uaHE0xxYaOzKBcu2tK/JdebYm8y/HVbRIW4t0loAr9UiQEtqVHR5X4Dfa
6o0ATE97Z4iFa+/XVWpbH4JuK9g0nwcT834Q4o67S5PEUFey6aKwJyiStwZ9MEI9
i3QzZbzupJRuH9e+hnMSvdFYD42lHf4dAJxvTMo5mo9xu1uFrbsn/IIqgj3kI61q
Pf2+alchdKF0GSWcZCkhr8qLsZNGXkzNPwdPSxbj6CnRkyQu/508eyPyFNxWNGYJ
4YBPh+jNl+LSvjT1fVIR7ansBhs0hSE0AJ57bM7I4Q24j6l3MJNeLliraZm2/CER
gceNBf9SwV54A2KcVg==
-----END CERTIFICATE-----
